; Function Attrs: mustprogress uwtable
define dso_local noundef nonnull align 8 dereferenceable(24) ptr @_ZN4i18n12phonenumbers11UnicodeText6appendERKNS1_14const_iteratorES4_(ptr noundef nonnull returned align 8 dereferenceable(24) %0, ptr noundef nonnull readonly align 8 captures(none) dereferenceable(8) %1, ptr noundef nonnull readonly align 8 captures(none) dereferenceable(8) %2) local_unnamed_addr #1 align 2 {
  %4 = load ptr, ptr %1, align 8, !tbaa !4
  %5 = load ptr, ptr %2, align 8, !tbaa !4
  %6 = ptrtoint ptr %5 to i64
  %7 = ptrtoint ptr %4 to i64
  %8 = sub i64 %6, %7
  %9 = trunc i64 %8 to i32
  %10 = getelementptr inbounds nuw i8, ptr %0, i64 8
  %11 = load i32, ptr %10, align 8, !tbaa !21
  %12 = add nsw i32 %11, %9
  %13 = getelementptr inbounds nuw i8, ptr %0, i64 12
  %14 = load i32, ptr %13, align 4, !tbaa !13
  %.not.i.i = icmp slt i32 %14, %12
  br i1 %.not.i.i, label %19, label %15

15:                                               ; preds = %3
  %16 = getelementptr inbounds nuw i8, ptr %0, i64 16
  %17 = load i8, ptr %16, align 8, !tbaa !17, !range !18, !noundef !19
  %18 = trunc nuw i8 %17 to i1
  br i1 %18, label %._ZN4i18n12phonenumbers11UnicodeText4Repr7reserveEi.exit_crit_edge.i, label %19

._ZN4i18n12phonenumbers11UnicodeText4Repr7reserveEi.exit_crit_edge.i: ; preds = %15
  %.pre.i = load ptr, ptr %0, align 8, !tbaa !20
  br label %_ZN4i18n12phonenumbers11UnicodeText4Repr6appendEPKci.exit

19:                                               ; preds = %15, %3
  %20 = mul nsw i32 %14, 3
  %21 = sdiv i32 %20, 2
  %22 = add nsw i32 %21, 20
  %.sroa.speculated.i.i = tail call i32 @llvm.smax.i32(i32 %12, i32 %22)
  store i32 %.sroa.speculated.i.i, ptr %13, align 4, !tbaa !13
  %23 = sext i32 %.sroa.speculated.i.i to i64
  %24 = tail call noalias noundef nonnull ptr @_Znam(i64 noundef %23) #25
  %25 = load ptr, ptr %0, align 8, !tbaa !20
  %.not4.i.i = icmp eq ptr %25, null
  br i1 %.not4.i.i, label %32, label %26

26:                                               ; preds = %19
  %27 = sext i32 %11 to i64
  tail call void @llvm.memcpy.p0.p0.i64(ptr nonnull align 1 %24, ptr nonnull align 1 %25, i64 %27, i1 false)
  %28 = getelementptr inbounds nuw i8, ptr %0, i64 16
  %29 = load i8, ptr %28, align 8, !tbaa !17, !range !18, !noundef !19
  %30 = trunc nuw i8 %29 to i1
  br i1 %30, label %31, label %32

31:                                               ; preds = %26
  tail call void @_ZdaPv(ptr noundef nonnull %25) #26
  %.pre4.pre.i = load i32, ptr %10, align 8, !tbaa !21
  br label %32

32:                                               ; preds = %31, %26, %19
  %.pre4.i = phi i32 [ %.pre4.pre.i, %31 ], [ %11, %26 ], [ %11, %19 ]
  store ptr %24, ptr %0, align 8, !tbaa !20
  %33 = getelementptr inbounds nuw i8, ptr %0, i64 16
  store i8 1, ptr %33, align 8, !tbaa !17
  br label %_ZN4i18n12phonenumbers11UnicodeText4Repr6appendEPKci.exit

_ZN4i18n12phonenumbers11UnicodeText4Repr6appendEPKci.exit: ; preds = %._ZN4i18n12phonenumbers11UnicodeText4Repr7reserveEi.exit_crit_edge.i, %32
  %34 = phi i32 [ %11, %._ZN4i18n12phonenumbers11UnicodeText4Repr7reserveEi.exit_crit_edge.i ], [ %.pre4.i, %32 ]
  %35 = phi ptr [ %.pre.i, %._ZN4i18n12phonenumbers11UnicodeText4Repr7reserveEi.exit_crit_edge.i ], [ %24, %32 ]
  %36 = sext i32 %34 to i64
  %37 = getelementptr inbounds i8, ptr %35, i64 %36
  %sext = shl i64 %8, 32
  %38 = ashr exact i64 %sext, 32
  tail call void @llvm.memcpy.p0.p0.i64(ptr align 1 %37, ptr readonly align 1 %4, i64 %38, i1 false)
  %39 = load i32, ptr %10, align 8, !tbaa !21
  %40 = add nsw i32 %39, %9
  store i32 %40, ptr %10, align 8, !tbaa !21
  ret ptr %0
}